; ModuleID = 'bench/duckdb/original/counter.ll'
source_filename = "bench/duckdb/original/counter.ll"
target datalayout = "e-m:e-p270:32:32-p271:32:32-p272:64:64-i64:64-i128:128-f80:128-n8:16:32:64-S128"
target triple = "x86_64-pc-linux-gnu"

; Function Attrs: mustprogress nofree norecurse nounwind willreturn memory(argmem: readwrite) uwtable
define noundef zeroext i1 @duckdb_je_counter_accum_init(ptr noundef writeonly captures(none) %0, i64 noundef %1) local_unnamed_addr #0 {
  store atomic i64 0, ptr %0 monotonic, align 8
  %3 = getelementptr inbounds nuw i8, ptr %0, i64 8
  store i64 %1, ptr %3, align 8, !tbaa !3
  ret i1 false
}

; Function Attrs: mustprogress nofree norecurse nosync nounwind willreturn memory(none) uwtable
define void @duckdb_je_counter_prefork(ptr noundef readnone captures(none) %0, ptr noundef readnone captures(none) %1) local_unnamed_addr #1 {
  ret void
}

; Function Attrs: mustprogress nofree norecurse nosync nounwind willreturn memory(none) uwtable
define void @duckdb_je_counter_postfork_parent(ptr noundef readnone captures(none) %0, ptr noundef readnone captures(none) %1) local_unnamed_addr #1 {
  ret void
}

; Function Attrs: mustprogress nofree norecurse nosync nounwind willreturn memory(none) uwtable
define void @duckdb_je_counter_postfork_child(ptr noundef readnone captures(none) %0, ptr noundef readnone captures(none) %1) local_unnamed_addr #1 {
  ret void
}


!llvm.module.flags = !{!0, !1, !2}

!0 = !{i32 1, !"wchar_size", i32 4}
!1 = !{i32 8, !"PIC Level", i32 2}
!2 = !{i32 7, !"uwtable", i32 2}
!3 = !{!4, !7, i64 8}
!4 = !{!"counter_accum_s", !5, i64 0, !7, i64 8}
!5 = !{!"locked_u64_s", !6, i64 0}
!6 = !{!"", !7, i64 0}
!7 = !{!"long", !8, i64 0}
!8 = !{!"omnipotent char", !9, i64 0}
!9 = !{!"Simple C/C++ TBAA"}
